target datalayout = "e-m:e-p270:32:32-p271:32:32-p272:64:64-i64:64-i128:128-f80:128-n8:16:32:64-S128"
target triple = "x86_64-pc-linux-gnu"

%struct.ref_iterator_vtable = type { ptr, ptr, ptr }
%struct.ref_iterator = type { ptr, ptr, ptr, ptr, i32 }
%struct.prefix_ref_iterator = type { %struct.ref_iterator, ptr, ptr, i32 }

; Function Attrs: nounwind uwtable
define dso_local void @base_ref_iterator_free(ptr noundef %0) #0 {
  %2 = alloca ptr, align 8
  store ptr %0, ptr %2, align 8, !tbaa !4
  %3 = load ptr, ptr %2, align 8, !tbaa !4
  %4 = getelementptr inbounds nuw %struct.ref_iterator, ptr %3, i32 0, i32 0
  store ptr null, ptr %4, align 8, !tbaa !9
  %5 = load ptr, ptr %2, align 8, !tbaa !4
  call void @free(ptr noundef %5) #6
  ret void
}

; Function Attrs: nounwind uwtable
define dso_local i32 @ref_iterator_abort(ptr noundef %0) #0 {
  %2 = alloca ptr, align 8
  store ptr %0, ptr %2, align 8, !tbaa !4
  %3 = load ptr, ptr %2, align 8, !tbaa !4
  %4 = getelementptr inbounds nuw %struct.ref_iterator, ptr %3, i32 0, i32 0
  %5 = load ptr, ptr %4, align 8, !tbaa !9
  %6 = getelementptr inbounds nuw %struct.ref_iterator_vtable, ptr %5, i32 0, i32 2
  %7 = load ptr, ptr %6, align 8, !tbaa !19
  %8 = load ptr, ptr %2, align 8, !tbaa !4
  %9 = call i32 %7(ptr noundef %8)
  ret i32 %9
}

; Function Attrs: nounwind uwtable
define internal i32 @prefix_ref_iterator_abort(ptr noundef %0) #0 {
  %2 = alloca ptr, align 8
  %3 = alloca ptr, align 8
  %4 = alloca i32, align 4
  store ptr %0, ptr %2, align 8, !tbaa !4
  call void @llvm.lifetime.start.p0(i64 8, ptr %3) #6
  %5 = load ptr, ptr %2, align 8, !tbaa !4
  store ptr %5, ptr %3, align 8, !tbaa !40
  call void @llvm.lifetime.start.p0(i64 4, ptr %4) #6
  store i32 -1, ptr %4, align 4, !tbaa !28
  %6 = load ptr, ptr %3, align 8, !tbaa !40
  %7 = getelementptr inbounds nuw %struct.prefix_ref_iterator, ptr %6, i32 0, i32 1
  %8 = load ptr, ptr %7, align 8, !tbaa !42
  %9 = icmp ne ptr %8, null
  br i1 %9, label %10, label %15

10:                                               ; preds = %1
  %11 = load ptr, ptr %3, align 8, !tbaa !40
  %12 = getelementptr inbounds nuw %struct.prefix_ref_iterator, ptr %11, i32 0, i32 1
  %13 = load ptr, ptr %12, align 8, !tbaa !42
  %14 = call i32 @ref_iterator_abort(ptr noundef %13)
  store i32 %14, ptr %4, align 4, !tbaa !28
  br label %15

15:                                               ; preds = %10, %1
  %16 = load ptr, ptr %3, align 8, !tbaa !40
  %17 = getelementptr inbounds nuw %struct.prefix_ref_iterator, ptr %16, i32 0, i32 2
  %18 = load ptr, ptr %17, align 8, !tbaa !44
  call void @free(ptr noundef %18) #6
  %19 = load ptr, ptr %2, align 8, !tbaa !4
  call void @base_ref_iterator_free(ptr noundef %19)
  %20 = load i32, ptr %4, align 4, !tbaa !28
  call void @llvm.lifetime.end.p0(i64 4, ptr %4) #6
  call void @llvm.lifetime.end.p0(i64 8, ptr %3) #6
  ret i32 %20
}