; Function Attrs: nounwind uwtable
define internal i32 @prefix_ref_iterator_abort(ptr noundef captures(none) %0) #0 {
  %2 = getelementptr inbounds nuw i8, ptr %0, i64 40
  %3 = load ptr, ptr %2, align 8, !tbaa !27
  %.not = icmp eq ptr %3, null
  br i1 %.not, label %9, label %4

4:                                                ; preds = %1
  %5 = load ptr, ptr %3, align 8, !tbaa !4
  %6 = getelementptr inbounds nuw i8, ptr %5, i64 16
  %7 = load ptr, ptr %6, align 8, !tbaa !16
  %8 = tail call i32 %7(ptr noundef nonnull %3) #11
  br label %9

9:                                                ; preds = %4, %1
  %.0 = phi i32 [ %8, %4 ], [ -1, %1 ]
  %10 = getelementptr inbounds nuw i8, ptr %0, i64 48
  %11 = load ptr, ptr %10, align 8, !tbaa !29
  tail call void @free(ptr noundef %11) #11
  tail call void @free(ptr noundef nonnull %0) #11
  ret i32 %.0
}